; Function Attrs: nounwind uwtable
define i32 @ossl_i2d_DHx_PUBKEY(ptr noundef %0, ptr noundef %1) local_unnamed_addr #0 {
  %.not = icmp eq ptr %0, null
  br i1 %.not, label %11, label %3

3:                                                ; preds = %2
  %4 = tail call ptr @EVP_PKEY_new() #9
  %5 = icmp eq ptr %4, null
  br i1 %5, label %6, label %7

6:                                                ; preds = %3
  tail call void @ERR_new() #9
  tail call void @ERR_set_debug(ptr noundef nonnull @.str, i32 noundef 718, ptr noundef nonnull @__func__.ossl_i2d_DHx_PUBKEY) #9
  tail call void (i32, i32, ptr, ...) @ERR_set_error(i32 noundef 13, i32 noundef 524294, ptr noundef null) #9
  br label %11

7:                                                ; preds = %3
  %8 = tail call i32 @EVP_PKEY_assign(ptr noundef nonnull %4, i32 noundef 920, ptr noundef nonnull %0) #9
  %9 = tail call i32 @i2d_PUBKEY(ptr noundef nonnull %4, ptr noundef %1)
  %10 = getelementptr inbounds nuw i8, ptr %4, i64 32
  store ptr null, ptr %10, align 8, !tbaa !55
  tail call void @EVP_PKEY_free(ptr noundef nonnull %4) #9
  br label %11

11:                                               ; preds = %2, %7, %6
  %.0 = phi i32 [ -1, %6 ], [ %9, %7 ], [ 0, %2 ]
  ret i32 %.0
}